; Function Attrs: nofree norecurse nosync nounwind memory(argmem: read) uwtable
define dso_local range(i32 0, 2) i32 @jvp_utf8_is_valid(ptr noundef readonly captures(address) %0, ptr noundef readnone captures(address) %1) local_unnamed_addr #1 {
  %3 = icmp eq ptr %0, %1
  br i1 %3, label %jvp_utf8_next.exit.thread, label %.lr.ph

.lr.ph:                                           ; preds = %2, %.backedge
  %.0215 = phi ptr [ %.02.be, %.backedge ], [ %0, %2 ]
  %4 = load i8, ptr %.0215, align 1, !tbaa !4
  %5 = zext i8 %4 to i64
  %6 = getelementptr inbounds nuw [256 x i8], ptr @utf8_coding_length, i64 0, i64 %5
  %7 = load i8, ptr %6, align 1, !tbaa !4
  %8 = zext i8 %7 to i32
  %9 = icmp sgt i8 %4, -1
  br i1 %9, label %jvp_utf8_next.exit, label %10

10:                                               ; preds = %.lr.ph
  %11 = add i8 %7, 1
  %or.cond.i = icmp ult i8 %11, 2
  br i1 %or.cond.i, label %jvp_utf8_next.exit.thread, label %12

12:                                               ; preds = %10
  %13 = zext i8 %7 to i64
  %14 = getelementptr inbounds nuw i8, ptr %.0215, i64 %13
  %15 = icmp ugt ptr %14, %1
  br i1 %15, label %jvp_utf8_next.exit.thread, label %16

16:                                               ; preds = %12
  %17 = getelementptr inbounds nuw [256 x i8], ptr @utf8_coding_bits, i64 0, i64 %5
  %18 = load i8, ptr %17, align 1, !tbaa !4
  %19 = and i8 %18, %4
  %20 = zext i8 %19 to i32
  %21 = icmp ugt i8 %7, 1
  br i1 %21, label %.lr.ph.i, label %._crit_edge.i

.lr.ph.i:                                         ; preds = %16, %27
  %indvars.iv.i = phi i64 [ %indvars.iv.next.i, %27 ], [ 1, %16 ]
  %.14349.i = phi i32 [ %31, %27 ], [ %20, %16 ]
  %22 = getelementptr inbounds nuw i8, ptr %.0215, i64 %indvars.iv.i
  %23 = load i8, ptr %22, align 1, !tbaa !4
  %24 = zext i8 %23 to i64
  %25 = getelementptr inbounds nuw [256 x i8], ptr @utf8_coding_length, i64 0, i64 %24
  %26 = load i8, ptr %25, align 1, !tbaa !4
  %.not.i = icmp eq i8 %26, -1
  br i1 %.not.i, label %27, label %._crit_edge.loopexit.split.loop.exit56.i

27:                                               ; preds = %.lr.ph.i
  %28 = shl i32 %.14349.i, 6
  %29 = and i8 %23, 63
  %30 = zext nneg i8 %29 to i32
  %31 = or disjoint i32 %28, %30
  %indvars.iv.next.i = add nuw nsw i64 %indvars.iv.i, 1
  %exitcond.not.i = icmp eq i64 %indvars.iv.next.i, %13
  br i1 %exitcond.not.i, label %._crit_edge.i, label %.lr.ph.i, !llvm.loop !11

._crit_edge.loopexit.split.loop.exit56.i:         ; preds = %.lr.ph.i
  %32 = trunc nuw nsw i64 %indvars.iv.i to i32
  br label %._crit_edge.i

._crit_edge.i:                                    ; preds = %27, %._crit_edge.loopexit.split.loop.exit56.i, %16
  %.244.i = phi i32 [ %20, %16 ], [ -1, %._crit_edge.loopexit.split.loop.exit56.i ], [ %31, %27 ]
  %.2.i = phi i32 [ %8, %16 ], [ %32, %._crit_edge.loopexit.split.loop.exit56.i ], [ %8, %27 ]
  %33 = zext nneg i32 %.2.i to i64
  %34 = getelementptr inbounds nuw [5 x i32], ptr @utf8_first_codepoint, i64 0, i64 %33
  %35 = load i32, ptr %34, align 4, !tbaa !9
  %36 = icmp slt i32 %.244.i, %35
  %spec.store.select4.i = select i1 %36, i32 -1, i32 %.244.i
  %37 = and i32 %spec.store.select4.i, -2048
  %or.cond3.i = icmp eq i32 %37, 55296
  %spec.store.select5.i = select i1 %or.cond3.i, i32 -1, i32 %spec.store.select4.i
  %38 = icmp sgt i32 %spec.store.select5.i, 1114111
  %39 = icmp eq i32 %spec.store.select5.i, -1
  %40 = or i1 %38, %39
  %41 = sext i32 %.2.i to i64
  %42 = getelementptr inbounds i8, ptr %.0215, i64 %41
  br i1 %40, label %jvp_utf8_next.exit.thread, label %.backedge

.backedge:                                        ; preds = %._crit_edge.i, %jvp_utf8_next.exit
  %.02.be = phi ptr [ %44, %jvp_utf8_next.exit ], [ %42, %._crit_edge.i ]
  %43 = icmp eq ptr %.02.be, %1
  br i1 %43, label %jvp_utf8_next.exit.thread, label %.lr.ph, !llvm.loop !12

jvp_utf8_next.exit:                               ; preds = %.lr.ph
  %44 = getelementptr inbounds nuw i8, ptr %.0215, i64 1
  br label %.backedge

jvp_utf8_next.exit.thread:                        ; preds = %.backedge, %._crit_edge.i, %10, %12, %2
  %.0 = phi i32 [ 1, %2 ], [ 1, %.backedge ], [ 0, %._crit_edge.i ], [ 0, %10 ], [ 0, %12 ]
  ret i32 %.0
}